; Function Attrs: nounwind uwtable
define ptr @l_Lean_PersistentHashMap_isEmpty___rarg___boxed(ptr noundef %0) #2 {
  %2 = ptrtoint ptr %0 to i64
  %3 = and i64 %2, 1
  %.not.i20.i.i = icmp eq i64 %3, 0
  br i1 %.not.i20.i.i, label %7, label %4

4:                                                ; preds = %1
  %5 = lshr i64 %2, 1
  %6 = trunc i64 %5 to i32
  br label %lean_obj_tag.exit.i.i

7:                                                ; preds = %1
  %8 = getelementptr i8, ptr %0, i64 4
  %.val.i.i.i = load i32, ptr %8, align 4
  %9 = lshr i32 %.val.i.i.i, 24
  br label %lean_obj_tag.exit.i.i

lean_obj_tag.exit.i.i:                            ; preds = %7, %4
  %.0.i21.i.i = phi i32 [ %6, %4 ], [ %9, %7 ]
  %10 = icmp eq i32 %.0.i21.i.i, 0
  br i1 %10, label %lean_nat_lt.exit.i.i, label %l_Lean_PersistentHashMap_isEmpty___rarg.exit

lean_nat_lt.exit.i.i:                             ; preds = %lean_obj_tag.exit.i.i
  %11 = getelementptr inbounds nuw i8, ptr %0, i64 8
  %12 = load ptr, ptr %11, align 8, !tbaa !9
  %13 = getelementptr i8, ptr %12, i64 8
  %.val.i.i = load i64, ptr %13, align 8, !tbaa !12
  %.mask.i.i = and i64 %.val.i.i, 9223372036854775807
  %.not.i.i = icmp eq i64 %.mask.i.i, 0
  br i1 %.not.i.i, label %l_Lean_PersistentHashMap_isEmpty___rarg.exit, label %lean_dec.exit.i.i

lean_dec.exit.i.i:                                ; preds = %lean_nat_lt.exit.i.i
  %14 = tail call zeroext i8 @l_Array_anyMUnsafe_any___at_Lean_PersistentHashMap_Node_isEmpty___spec__1___rarg(ptr noundef nonnull %12, i64 noundef 0, i64 noundef %.mask.i.i) #9
  %..i.i = shl nuw nsw i8 %14, 1
  %15 = xor i8 %..i.i, 3
  %16 = zext nneg i8 %15 to i64
  br label %l_Lean_PersistentHashMap_isEmpty___rarg.exit

l_Lean_PersistentHashMap_isEmpty___rarg.exit:     ; preds = %lean_obj_tag.exit.i.i, %lean_nat_lt.exit.i.i, %lean_dec.exit.i.i
  %.2.i.i = phi i64 [ %16, %lean_dec.exit.i.i ], [ 1, %lean_obj_tag.exit.i.i ], [ 3, %lean_nat_lt.exit.i.i ]
  br i1 %.not.i20.i.i, label %17, label %lean_dec.exit

17:                                               ; preds = %l_Lean_PersistentHashMap_isEmpty___rarg.exit
  %18 = load i32, ptr %0, align 4, !tbaa !4
  %19 = icmp sgt i32 %18, 1
  br i1 %19, label %20, label %22, !prof !11

20:                                               ; preds = %17
  %21 = add nsw i32 %18, -1
  store i32 %21, ptr %0, align 4, !tbaa !4
  br label %lean_dec.exit

22:                                               ; preds = %17
  %.not.i = icmp eq i32 %18, 0
  br i1 %.not.i, label %lean_dec.exit, label %23

23:                                               ; preds = %22
  tail call void @lean_dec_ref_cold(ptr noundef nonnull %0) #7
  br label %lean_dec.exit

lean_dec.exit:                                    ; preds = %23, %22, %20, %l_Lean_PersistentHashMap_isEmpty___rarg.exit
  %24 = inttoptr i64 %.2.i.i to ptr
  ret ptr %24
}